#include <math.h>
#include <stdio.h>
#include <stdlib.h>
#include <string.h>
#include <iostream>
using namespace std;

/*
* ??????????.cpp
* ??????
* ?????2012.10.23
* ?????????
*/
int main()
{
	int n,a,b,i,s,p;
	cin>>s;
	for (p=1;p<=s;p++)
	{
	cin>>n;
	a=b=1;
	i=2;
	if (n<=2)
		cout<<a<<endl;
	else
	{
		while (i<=n)
		{
			a=a+b;
			i++;
			if (i==n)
				{cout<<a<<endl;break;}
			else
			{
				b=a+b;
				i++;
				if (i==n)
					{cout<<b<<endl;break;}
			}
		}
	}
	}
	return 0;
}
